target datalayout = "e-m:e-p270:32:32-p271:32:32-p272:64:64-i64:64-i128:128-f80:128-n8:16:32:64-S128"
target triple = "x86_64-pc-linux-gnu"

%"class.std::shared_ptr" = type { %"class.std::__shared_ptr" }
%"class.std::__shared_ptr" = type { ptr, %"class.std::__shared_count" }
%"class.std::__shared_count" = type { ptr }
%"class.arrow::Result" = type { %"class.arrow::Status", %"class.arrow::internal::AlignedStorage" }
%"class.arrow::Status" = type { ptr }
%"class.arrow::internal::AlignedStorage" = type { [16 x i8] }

; Function Attrs: mustprogress nounwind uwtable
define linkonce_odr noundef ptr @_ZSt7launderISt10shared_ptrIN5arrow8DataTypeEEEPT_S5_(ptr noundef %0) #3 comdat {
  %2 = alloca ptr, align 8
  store ptr %0, ptr %2, align 8, !tbaa !16
  %3 = load ptr, ptr %2, align 8, !tbaa !16
  ret ptr %3
}

; Function Attrs: mustprogress nounwind uwtable
define linkonce_odr noundef ptr @_ZN5arrow8internal14AlignedStorageISt10shared_ptrINS_8DataTypeEEE3getEv(ptr noundef nonnull align 8 dereferenceable(16) %0) #3 comdat align 2 {
  %2 = alloca ptr, align 8
  store ptr %0, ptr %2, align 8, !tbaa !133
  %3 = load ptr, ptr %2, align 8
  %4 = getelementptr inbounds nuw %"class.arrow::internal::AlignedStorage", ptr %3, i32 0, i32 0
  %5 = call noundef ptr @_ZSt7launderISt10shared_ptrIN5arrow8DataTypeEEEPT_S5_(ptr noundef %4) #18
  ret ptr %5
}

; Function Attrs: mustprogress nounwind uwtable
define linkonce_odr noundef zeroext i1 @_ZNK5arrow6Status2okEv(ptr noundef nonnull align 8 dereferenceable(8) %0) #3 comdat align 2 {
  %2 = alloca ptr, align 8
  store ptr %0, ptr %2, align 8, !tbaa !64
  %3 = load ptr, ptr %2, align 8
  %4 = getelementptr inbounds nuw %"class.arrow::Status", ptr %3, i32 0, i32 0
  %5 = load ptr, ptr %4, align 8, !tbaa !66
  %6 = icmp eq ptr %5, null
  ret i1 %6
}

; Function Attrs: mustprogress nounwind uwtable
define linkonce_odr void @_ZNSt14__shared_countILN9__gnu_cxx12_Lock_policyE2EE7_M_swapERS2_(ptr noundef nonnull align 8 dereferenceable(8) %0, ptr noundef nonnull align 8 dereferenceable(8) %1) #3 comdat align 2 {
  %3 = alloca ptr, align 8
  %4 = alloca ptr, align 8
  %5 = alloca ptr, align 8
  store ptr %0, ptr %3, align 8, !tbaa !86
  store ptr %1, ptr %4, align 8, !tbaa !86
  %6 = load ptr, ptr %3, align 8
  call void @llvm.lifetime.start.p0(i64 8, ptr %5) #18
  %7 = load ptr, ptr %4, align 8, !tbaa !86
  %8 = getelementptr inbounds nuw %"class.std::__shared_count", ptr %7, i32 0, i32 0
  %9 = load ptr, ptr %8, align 8, !tbaa !88
  store ptr %9, ptr %5, align 8, !tbaa !89
  %10 = getelementptr inbounds nuw %"class.std::__shared_count", ptr %6, i32 0, i32 0
  %11 = load ptr, ptr %10, align 8, !tbaa !88
  %12 = load ptr, ptr %4, align 8, !tbaa !86
  %13 = getelementptr inbounds nuw %"class.std::__shared_count", ptr %12, i32 0, i32 0
  store ptr %11, ptr %13, align 8, !tbaa !88
  %14 = load ptr, ptr %5, align 8, !tbaa !89
  %15 = getelementptr inbounds nuw %"class.std::__shared_count", ptr %6, i32 0, i32 0
  store ptr %14, ptr %15, align 8, !tbaa !88
  call void @llvm.lifetime.end.p0(i64 8, ptr %5) #18
  ret void
}

; Function Attrs: mustprogress nounwind uwtable
define linkonce_odr void @_ZNSt14__shared_countILN9__gnu_cxx12_Lock_policyE2EEC2Ev(ptr noundef nonnull align 8 dereferenceable(8) %0) unnamed_addr #3 comdat align 2 {
  %2 = alloca ptr, align 8
  store ptr %0, ptr %2, align 8, !tbaa !86
  %3 = load ptr, ptr %2, align 8
  %4 = getelementptr inbounds nuw %"class.std::__shared_count", ptr %3, i32 0, i32 0
  store ptr null, ptr %4, align 8, !tbaa !88
  ret void
}

; Function Attrs: mustprogress nounwind uwtable
define linkonce_odr void @_ZN5arrow6ResultISt10shared_ptrINS_8DataTypeEEE15MoveValueUnsafeEv(ptr dead_on_unwind noalias writable sret(%"class.std::shared_ptr") align 8 %0, ptr noundef nonnull align 8 dereferenceable(24) %1) #3 comdat align 2 {
  %3 = alloca ptr, align 8
  %4 = alloca ptr, align 8
  store ptr %0, ptr %3, align 8
  store ptr %1, ptr %4, align 8, !tbaa !62
  %5 = load ptr, ptr %4, align 8
  %6 = getelementptr inbounds nuw %"class.arrow::Result", ptr %5, i32 0, i32 1
  %7 = call noundef ptr @_ZN5arrow8internal14AlignedStorageISt10shared_ptrINS_8DataTypeEEE3getEv(ptr noundef nonnull align 8 dereferenceable(16) %6) #18
  call void @_ZNSt10shared_ptrIN5arrow8DataTypeEEC2EOS2_(ptr noundef nonnull align 8 dereferenceable(16) %0, ptr noundef nonnull align 8 dereferenceable(16) %7) #18
  ret void
}

; Function Attrs: mustprogress nounwind uwtable
define linkonce_odr noundef zeroext i1 @_ZNK5arrow6ResultISt10shared_ptrINS_8DataTypeEEE2okEv(ptr noundef nonnull align 8 dereferenceable(24) %0) #3 comdat align 2 {
  %2 = alloca ptr, align 8
  store ptr %0, ptr %2, align 8, !tbaa !62
  %3 = load ptr, ptr %2, align 8
  %4 = getelementptr inbounds nuw %"class.arrow::Result", ptr %3, i32 0, i32 0
  %5 = call noundef zeroext i1 @_ZNK5arrow6Status2okEv(ptr noundef nonnull align 8 dereferenceable(8) %4)
  ret i1 %5
}

; Function Attrs: mustprogress nounwind uwtable
define linkonce_odr void @_ZNSt12__shared_ptrIN5arrow8DataTypeELN9__gnu_cxx12_Lock_policyE2EEC2EOS4_(ptr noundef nonnull align 8 dereferenceable(16) %0, ptr noundef nonnull align 8 dereferenceable(16) %1) unnamed_addr #3 comdat align 2 {
  %3 = alloca ptr, align 8
  %4 = alloca ptr, align 8
  store ptr %0, ptr %3, align 8, !tbaa !18
  store ptr %1, ptr %4, align 8, !tbaa !18
  %5 = load ptr, ptr %3, align 8
  %6 = getelementptr inbounds nuw %"class.std::__shared_ptr", ptr %5, i32 0, i32 0
  %7 = load ptr, ptr %4, align 8, !tbaa !18
  %8 = getelementptr inbounds nuw %"class.std::__shared_ptr", ptr %7, i32 0, i32 0
  %9 = load ptr, ptr %8, align 8, !tbaa !124
  store ptr %9, ptr %6, align 8, !tbaa !124
  %10 = getelementptr inbounds nuw %"class.std::__shared_ptr", ptr %5, i32 0, i32 1
  call void @_ZNSt14__shared_countILN9__gnu_cxx12_Lock_policyE2EEC2Ev(ptr noundef nonnull align 8 dereferenceable(8) %10) #18
  %11 = getelementptr inbounds nuw %"class.std::__shared_ptr", ptr %5, i32 0, i32 1
  %12 = load ptr, ptr %4, align 8, !tbaa !18
  %13 = getelementptr inbounds nuw %"class.std::__shared_ptr", ptr %12, i32 0, i32 1
  call void @_ZNSt14__shared_countILN9__gnu_cxx12_Lock_policyE2EE7_M_swapERS2_(ptr noundef nonnull align 8 dereferenceable(8) %11, ptr noundef nonnull align 8 dereferenceable(8) %13) #18
  %14 = load ptr, ptr %4, align 8, !tbaa !18
  %15 = getelementptr inbounds nuw %"class.std::__shared_ptr", ptr %14, i32 0, i32 0
  store ptr null, ptr %15, align 8, !tbaa !124
  ret void
}

; Function Attrs: mustprogress uwtable
define linkonce_odr void @_ZNO5arrow6ResultISt10shared_ptrINS_8DataTypeEEE10ValueOrDieEv(ptr dead_on_unwind noalias writable sret(%"class.std::shared_ptr") align 8 %0, ptr noundef nonnull align 8 dereferenceable(24) %1) #0 comdat align 2 {
  %3 = alloca ptr, align 8
  %4 = alloca ptr, align 8
  store ptr %0, ptr %3, align 8
  store ptr %1, ptr %4, align 8, !tbaa !62
  %5 = load ptr, ptr %4, align 8
  %6 = call noundef zeroext i1 @_ZNK5arrow6ResultISt10shared_ptrINS_8DataTypeEEE2okEv(ptr noundef nonnull align 8 dereferenceable(24) %5)
  %7 = xor i1 %6, true
  %8 = xor i1 %7, true
  %9 = xor i1 %8, true
  %10 = zext i1 %9 to i64
  %11 = call i64 @llvm.expect.i64(i64 %10, i64 0)
  %12 = icmp ne i64 %11, 0
  br i1 %12, label %13, label %15

13:                                               ; preds = %2
  %14 = getelementptr inbounds nuw %"class.arrow::Result", ptr %5, i32 0, i32 0
  call void @_ZN5arrow8internal17InvalidValueOrDieERKNS_6StatusE(ptr noundef nonnull align 8 dereferenceable(8) %14)
  br label %15

15:                                               ; preds = %13, %2
  call void @_ZN5arrow6ResultISt10shared_ptrINS_8DataTypeEEE15MoveValueUnsafeEv(ptr dead_on_unwind writable sret(%"class.std::shared_ptr") align 8 %0, ptr noundef nonnull align 8 dereferenceable(24) %5)
  ret void
}

; Function Attrs: mustprogress nounwind uwtable
define linkonce_odr void @_ZNSt10shared_ptrIN5arrow8DataTypeEEC2EOS2_(ptr noundef nonnull align 8 dereferenceable(16) %0, ptr noundef nonnull align 8 dereferenceable(16) %1) unnamed_addr #3 comdat align 2 {
  %3 = alloca ptr, align 8
  %4 = alloca ptr, align 8
  store ptr %0, ptr %3, align 8, !tbaa !16
  store ptr %1, ptr %4, align 8, !tbaa !16
  %5 = load ptr, ptr %3, align 8
  %6 = load ptr, ptr %4, align 8, !tbaa !16
  call void @_ZNSt12__shared_ptrIN5arrow8DataTypeELN9__gnu_cxx12_Lock_policyE2EEC2EOS4_(ptr noundef nonnull align 8 dereferenceable(16) %5, ptr noundef nonnull align 8 dereferenceable(16) %6) #18
  ret void
}

; Function Attrs: mustprogress uwtable
define void @_ZN5arrow9extension4jsonESt10shared_ptrINS_8DataTypeEE(ptr dead_on_unwind noalias writable sret(%"class.std::shared_ptr") align 8 %0, ptr noundef %1) #0 personality ptr @__gxx_personality_v0 {
  %3 = alloca ptr, align 8
  %4 = alloca ptr, align 8
  %5 = alloca %"class.arrow::Result", align 8
  %6 = alloca %"class.std::shared_ptr", align 8
  %7 = alloca ptr, align 8
  %8 = alloca i32, align 4
  store ptr %0, ptr %3, align 8
  store ptr %1, ptr %4, align 8, !tbaa !16
  call void @llvm.lifetime.start.p0(i64 24, ptr %5) #18
  call void @_ZNSt10shared_ptrIN5arrow8DataTypeEEC2EOS2_(ptr noundef nonnull align 8 dereferenceable(16) %6, ptr noundef nonnull align 8 dereferenceable(16) %1) #18
  invoke void @_ZN5arrow9extension17JsonExtensionType4MakeESt10shared_ptrINS_8DataTypeEE(ptr dead_on_unwind writable sret(%"class.arrow::Result") align 8 %5, ptr noundef %6)
          to label %9 unwind label %11

9:                                                ; preds = %2
  invoke void @_ZNO5arrow6ResultISt10shared_ptrINS_8DataTypeEEE10ValueOrDieEv(ptr dead_on_unwind writable sret(%"class.std::shared_ptr") align 8 %0, ptr noundef nonnull align 8 dereferenceable(24) %5)
          to label %10 unwind label %15

10:                                               ; preds = %9
  call void @_ZN5arrow6ResultISt10shared_ptrINS_8DataTypeEEED2Ev(ptr noundef nonnull align 8 dereferenceable(24) %5) #18
  call void @_ZNSt12__shared_ptrIN5arrow8DataTypeELN9__gnu_cxx12_Lock_policyE2EED2Ev(ptr noundef nonnull align 8 dereferenceable(16) %6) #18
  call void @llvm.lifetime.end.p0(i64 24, ptr %5) #18
  ret void

11:                                               ; preds = %2
  %12 = landingpad { ptr, i32 }
          cleanup
  %13 = extractvalue { ptr, i32 } %12, 0
  store ptr %13, ptr %7, align 8
  %14 = extractvalue { ptr, i32 } %12, 1
  store i32 %14, ptr %8, align 4
  br label %19

15:                                               ; preds = %9
  %16 = landingpad { ptr, i32 }
          cleanup
  %17 = extractvalue { ptr, i32 } %16, 0
  store ptr %17, ptr %7, align 8
  %18 = extractvalue { ptr, i32 } %16, 1
  store i32 %18, ptr %8, align 4
  call void @_ZN5arrow6ResultISt10shared_ptrINS_8DataTypeEEED2Ev(ptr noundef nonnull align 8 dereferenceable(24) %5) #18
  br label %19

19:                                               ; preds = %15, %11
  call void @_ZNSt12__shared_ptrIN5arrow8DataTypeELN9__gnu_cxx12_Lock_policyE2EED2Ev(ptr noundef nonnull align 8 dereferenceable(16) %6) #18
  call void @llvm.lifetime.end.p0(i64 24, ptr %5) #18
  br label %20

20:                                               ; preds = %19
  %21 = load ptr, ptr %7, align 8
  %22 = load i32, ptr %8, align 4
  %23 = insertvalue { ptr, i32 } poison, ptr %21, 0
  %24 = insertvalue { ptr, i32 } %23, i32 %22, 1
  resume { ptr, i32 } %24
}