; Function Attrs: mustprogress uwtable
define void @_ZN5arrow9extension4jsonESt10shared_ptrINS_8DataTypeEE(ptr dead_on_unwind noalias writable writeonly sret(%"class.std::shared_ptr") align 8 captures(none) %0, ptr noundef captures(none) %1) local_unnamed_addr #0 personality ptr @__gxx_personality_v0 {
  %3 = alloca %"class.arrow::Result", align 8
  %4 = alloca %"class.std::shared_ptr", align 8
  call void @llvm.lifetime.start.p0(i64 24, ptr nonnull %3) #21
  %5 = load ptr, ptr %1, align 8, !tbaa !14
  store ptr %5, ptr %4, align 8, !tbaa !14
  %6 = getelementptr inbounds nuw i8, ptr %4, i64 8
  %7 = getelementptr inbounds nuw i8, ptr %1, i64 8
  %8 = load ptr, ptr %7, align 8, !tbaa !20
  store ptr null, ptr %7, align 8, !tbaa !20
  store ptr %8, ptr %6, align 8, !tbaa !20
  store ptr null, ptr %1, align 8, !tbaa !14
  invoke void @_ZN5arrow9extension17JsonExtensionType4MakeESt10shared_ptrINS_8DataTypeEE(ptr dead_on_unwind nonnull writable sret(%"class.arrow::Result") align 8 %3, ptr noundef nonnull %4)
          to label %9 unwind label %46

9:                                                ; preds = %2
  call void @llvm.experimental.noalias.scope.decl(metadata !88)
  %10 = load ptr, ptr %3, align 8, !tbaa !61, !noalias !88
  %11 = icmp eq ptr %10, null
  br i1 %11, label %13, label %12, !prof !64

12:                                               ; preds = %9
  invoke void @_ZN5arrow8internal17InvalidValueOrDieERKNS_6StatusE(ptr noundef nonnull align 8 dereferenceable(24) %3)
          to label %._crit_edge unwind label %48

._crit_edge:                                      ; preds = %12
  %.pre = load ptr, ptr %3, align 8, !tbaa !61
  br label %13

13:                                               ; preds = %._crit_edge, %9
  %.pr.i = phi ptr [ %.pre, %._crit_edge ], [ null, %9 ]
  call void @llvm.experimental.noalias.scope.decl(metadata !91)
  %14 = getelementptr inbounds nuw i8, ptr %3, i64 8
  %15 = load ptr, ptr %14, align 8, !tbaa !14, !noalias !94
  store ptr %15, ptr %0, align 8, !tbaa !14, !alias.scope !94
  %16 = getelementptr inbounds nuw i8, ptr %0, i64 8
  %17 = getelementptr inbounds nuw i8, ptr %3, i64 16
  %18 = load ptr, ptr %17, align 8, !tbaa !20, !noalias !94
  store ptr null, ptr %17, align 8, !tbaa !20, !noalias !94
  store ptr %18, ptr %16, align 8, !tbaa !20, !alias.scope !94
  store ptr null, ptr %14, align 8, !tbaa !14, !noalias !94
  %19 = icmp eq ptr %.pr.i, null
  br i1 %19, label %_ZN5arrow6ResultISt10shared_ptrINS_8DataTypeEEED2Ev.exit, label %_ZN5arrow6ResultISt10shared_ptrINS_8DataTypeEEE7DestroyEv.exit.thread.i, !prof !64

_ZN5arrow6ResultISt10shared_ptrINS_8DataTypeEEE7DestroyEv.exit.thread.i: ; preds = %13
  %20 = getelementptr inbounds nuw i8, ptr %.pr.i, i64 1
  %21 = load i8, ptr %20, align 1, !tbaa !65, !range !72, !noundef !73
  %22 = trunc nuw i8 %21 to i1
  br i1 %22, label %_ZN5arrow6ResultISt10shared_ptrINS_8DataTypeEEED2Ev.exit, label %23

23:                                               ; preds = %_ZN5arrow6ResultISt10shared_ptrINS_8DataTypeEEE7DestroyEv.exit.thread.i
  call void @_ZN5arrow6Status11DeleteStateEv(ptr noundef nonnull align 8 dereferenceable(24) %3) #21
  br label %_ZN5arrow6ResultISt10shared_ptrINS_8DataTypeEEED2Ev.exit

_ZN5arrow6ResultISt10shared_ptrINS_8DataTypeEEED2Ev.exit: ; preds = %13, %_ZN5arrow6ResultISt10shared_ptrINS_8DataTypeEEE7DestroyEv.exit.thread.i, %23
  %24 = load ptr, ptr %6, align 8, !tbaa !20
  %.not.i.i3 = icmp eq ptr %24, null
  br i1 %.not.i.i3, label %_ZNSt12__shared_ptrIN5arrow8DataTypeELN9__gnu_cxx12_Lock_policyE2EED2Ev.exit, label %25

25:                                               ; preds = %_ZN5arrow6ResultISt10shared_ptrINS_8DataTypeEEED2Ev.exit
  %26 = getelementptr inbounds nuw i8, ptr %24, i64 8
  %27 = load atomic i64, ptr %26 acquire, align 8
  %28 = icmp eq i64 %27, 4294967297
  %29 = trunc i64 %27 to i32
  br i1 %28, label %30, label %38

30:                                               ; preds = %25
  store i32 0, ptr %26, align 8, !tbaa !21
  %31 = getelementptr inbounds nuw i8, ptr %24, i64 12
  store i32 0, ptr %31, align 4, !tbaa !24
  %32 = load ptr, ptr %24, align 8, !tbaa !3
  %33 = getelementptr inbounds nuw i8, ptr %32, i64 16
  %34 = load ptr, ptr %33, align 8
  call void %34(ptr noundef nonnull align 8 dereferenceable(16) %24) #21
  %35 = load ptr, ptr %24, align 8, !tbaa !3
  %36 = getelementptr inbounds nuw i8, ptr %35, i64 24
  %37 = load ptr, ptr %36, align 8
  call void %37(ptr noundef nonnull align 8 dereferenceable(16) %24) #21
  br label %_ZNSt12__shared_ptrIN5arrow8DataTypeELN9__gnu_cxx12_Lock_policyE2EED2Ev.exit

38:                                               ; preds = %25
  %39 = load i8, ptr @__libc_single_threaded, align 1, !tbaa !19
  %.not.i.i.i = icmp eq i8 %39, 0
  br i1 %.not.i.i.i, label %42, label %40

40:                                               ; preds = %38
  %41 = add nsw i32 %29, -1
  store i32 %41, ptr %26, align 4, !tbaa !25
  br label %_ZN9__gnu_cxx27__exchange_and_add_dispatchEPii.exit.i.i.i

42:                                               ; preds = %38
  %43 = atomicrmw volatile add ptr %26, i32 -1 acq_rel, align 4
  br label %_ZN9__gnu_cxx27__exchange_and_add_dispatchEPii.exit.i.i.i

_ZN9__gnu_cxx27__exchange_and_add_dispatchEPii.exit.i.i.i: ; preds = %42, %40
  %.0.i.i.i.i = phi i32 [ %29, %40 ], [ %43, %42 ]
  %44 = icmp eq i32 %.0.i.i.i.i, 1
  br i1 %44, label %45, label %_ZNSt12__shared_ptrIN5arrow8DataTypeELN9__gnu_cxx12_Lock_policyE2EED2Ev.exit, !prof !26

45:                                               ; preds = %_ZN9__gnu_cxx27__exchange_and_add_dispatchEPii.exit.i.i.i
  call void @_ZNSt16_Sp_counted_baseILN9__gnu_cxx12_Lock_policyE2EE24_M_release_last_use_coldEv(ptr noundef nonnull align 8 dereferenceable(16) %24) #21
  br label %_ZNSt12__shared_ptrIN5arrow8DataTypeELN9__gnu_cxx12_Lock_policyE2EED2Ev.exit

_ZNSt12__shared_ptrIN5arrow8DataTypeELN9__gnu_cxx12_Lock_policyE2EED2Ev.exit: ; preds = %_ZN5arrow6ResultISt10shared_ptrINS_8DataTypeEEED2Ev.exit, %30, %_ZN9__gnu_cxx27__exchange_and_add_dispatchEPii.exit.i.i.i, %45
  call void @llvm.lifetime.end.p0(i64 24, ptr nonnull %3) #21
  ret void

46:                                               ; preds = %2
  %47 = landingpad { ptr, i32 }
          cleanup
  br label %50

48:                                               ; preds = %12
  %49 = landingpad { ptr, i32 }
          cleanup
  call void @_ZN5arrow6ResultISt10shared_ptrINS_8DataTypeEEED2Ev(ptr noundef nonnull align 8 dereferenceable(24) %3) #21
  br label %50

50:                                               ; preds = %48, %46
  %.pn = phi { ptr, i32 } [ %49, %48 ], [ %47, %46 ]
  call void @_ZNSt12__shared_ptrIN5arrow8DataTypeELN9__gnu_cxx12_Lock_policyE2EED2Ev(ptr noundef nonnull align 8 dereferenceable(16) %4) #21
  call void @llvm.lifetime.end.p0(i64 24, ptr nonnull %3) #21
  resume { ptr, i32 } %.pn
}